Certificate:
    Data:
        Version: 3 (0x2)
        Serial Number: 1 (0x1)
    Signature Algorithm: sha256WithRSAEncryption
        Issuer: CN=etcd-signer@1540898527
        Validity
            Not Before: Oct 30 11:24:24 2018 GMT
            Not After : Oct 29 11:24:24 2023 GMT
        Subject: CN=amos01-master001.amosdemo.io
        Subject Public Key Info:
            Public Key Algorithm: rsaEncryption
                Public-Key: (2048 bit)
                Modulus:
                    00:ca:f5:17:6c:16:68:8a:59:01:5d:8c:6d:3f:eb:
                    31:ef:d5:ef:16:77:cb:2e:ed:dc:b0:bc:c0:a3:3e:
                    5a:e5:bf:cd:c0:df:a3:31:b7:50:f8:4d:11:26:90:
                    0f:bf:6e:9a:2d:66:16:fe:6c:45:33:f4:e5:46:4e:
                    51:65:12:60:4b:28:ba:67:f9:39:2f:f7:5d:7d:c4:
                    95:32:1f:95:94:7d:ed:fa:a1:0a:28:0b:6e:7c:8b:
                    d8:23:c6:15:3c:bc:8a:42:3e:b2:bc:d5:12:a8:4c:
                    64:4a:f8:fe:b1:bc:34:3b:b7:a9:e3:cb:a3:a4:94:
                    74:83:42:66:00:e8:6f:3d:40:e0:18:e1:ee:af:85:
                    81:1c:46:24:0c:cb:cd:ab:e8:7c:83:45:00:f4:61:
                    e7:ed:73:51:93:1c:0d:77:f6:82:f6:65:58:cc:35:
                    fb:68:96:56:6c:af:db:81:f1:53:43:38:ee:2c:cf:
                    37:58:1a:fb:7b:27:7a:bc:09:79:45:85:71:b7:d6:
                    6a:4a:db:db:f2:07:ad:66:f2:73:af:8e:37:fb:d0:
                    12:ed:f5:1d:45:ac:ab:c4:7d:59:2a:31:23:26:45:
                    1d:eb:b4:47:c5:e2:f1:0b:84:82:92:df:22:93:49:
                    f3:64:8b:1f:95:d2:f6:2b:7e:47:ef:10:24:bd:c2:
                    66:e3
                Exponent: 65537 (0x10001)
        X509v3 extensions:
            X509v3 Authority Key Identifier: 
                keyid:BC:EA:2F:66:DE:54:35:81:AC:50:DB:1B:41:D8:6A:CC:F0:A9:54:5F
                DirName:/CN=etcd-signer@1540898527
                serial:A6:43:B5:65:61:7A:D1:37

            X509v3 Basic Constraints: critical
                CA:FALSE
            X509v3 Extended Key Usage: 
                TLS Web Server Authentication
            X509v3 Key Usage: 
                Digital Signature, Key Encipherment
            X509v3 Subject Key Identifier: 
                AA:B9:FF:16:0D:05:91:7B:6F:F9:D2:00:6F:0A:42:0E:94:D9:6A:5C
            X509v3 Subject Alternative Name: 
                IP Address:172.31.96.187, DNS:amos01-master001.amosdemo.io
    Signature Algorithm: sha256WithRSAEncryption
         4b:19:a1:fd:0f:32:4d:03:78:7b:3f:bb:37:11:23:60:9a:0d:
         20:0d:36:7f:3f:c4:42:c6:69:0a:f7:bb:36:ca:e7:ab:d3:24:
         62:e1:f7:42:19:8d:56:3a:bb:ce:09:b3:95:13:a2:74:69:a3:
         ec:8b:a6:d1:29:b8:13:c3:68:5c:8a:28:af:cd:81:cf:49:76:
         8a:7a:a4:ba:aa:72:df:53:71:af:78:6b:48:3e:20:9e:bc:05:
         90:4e:4a:8f:6c:a4:76:b9:ee:9e:19:85:29:82:05:68:0b:63:
         76:6e:9d:3c:d0:0c:a3:3b:55:68:e0:76:b0:07:be:76:4f:df:
         87:fd:0b:2a:42:16:6b:79:14:fc:ac:54:1d:4c:3e:c7:0d:ea:
         cd:b8:d7:fc:5e:7e:e1:9d:96:3f:e4:3c:64:b4:7b:2b:2b:3e:
         1d:c0:57:62:30:ec:81:69:d1:04:f3:7e:c2:10:f6:68:19:0f:
         86:88:d8:b2:69:07:cd:b8:1a:8b:58:65:96:ef:e4:9e:2d:a0:
         0f:fc:d1:23:a5:c5:a4:68:c3:cf:1f:97:b5:23:39:2f:7e:25:
         10:c4:08:9b:76:fd:a4:af:96:af:97:2c:81:a7:a7:26:a6:dd:
         fe:9f:76:ae:fd:4d:02:3b:39:00:90:4b:3d:ed:55:e0:c1:65:
         55:5f:80:49:b8:8a:74:7e:5a:30:3a:85:39:78:7b:af:97:33:
         7f:5b:ee:9e:a7:5d:f4:d5:de:2c:9e:67:af:a0:b5:5d:9c:90:
         1e:a0:64:6a:14:96:b6:c6:2b:0a:0d:1b:d9:a1:23:4f:06:52:
         af:ab:dc:3c:00:e1:d8:17:43:ab:f5:6b:02:5a:21:14:4a:c8:
         2d:dc:65:f8:af:ca:8f:c5:7c:9a:de:95:a0:df:a1:af:59:c4:
         95:32:94:cd:3c:01:05:be:62:91:ad:c1:8a:41:fb:8f:ca:05:
         3b:61:7a:dd:3f:67:da:2f:f6:09:b2:ee:ab:ed:bb:82:e6:d7:
         c3:39:b1:6a:c6:8c:d6:13:81:51:62:b3:54:32:4f:a8:f2:89:
         0a:34:d7:e3:8e:7e:37:41:c0:d9:06:09:f4:96:f2:e0:1d:53:
         72:cc:af:eb:ae:55:2d:fb:83:d9:38:0d:88:c0:12:06:5d:1c:
         5c:6d:e0:f5:3f:87:18:04:d2:28:f1:66:b4:95:0a:2b:83:67:
         7d:c5:89:4c:cc:a1:a4:ff:2a:c1:d6:f3:3b:54:5c:57:7a:3d:
         18:4a:a2:f2:c8:3a:d3:44:b2:c2:33:55:08:18:1b:72:5c:16:
         8f:ab:b0:d5:33:6b:78:29:44:41:b3:73:9c:b6:c0:21:0e:68:
         7d:0e:71:c2:62:4b:54:dd
-----BEGIN CERTIFICATE-----
MIIEmDCCAoCgAwIBAgIBATANBgkqhkiG9w0BAQsFADAhMR8wHQYDVQQDDBZldGNk
LXNpZ25lckAxNTQwODk4NTI3MB4XDTE4MTAzMDExMjQyNFoXDTIzMTAyOTExMjQy
NFowJzElMCMGA1UEAwwcYW1vczAxLW1hc3RlcjAwMS5hbW9zZGVtby5pbzCCASIw
DQYJKoZIhvcNAQEBBQADggEPADCCAQoCggEBAMr1F2wWaIpZAV2MbT/rMe/V7xZ3
yy7t3LC8wKM+WuW/zcDfozG3UPhNESaQD79umi1mFv5sRTP05UZOUWUSYEsoumf5
OS/3XX3ElTIflZR97fqhCigLbnyL2CPGFTy8ikI+srzVEqhMZEr4/rG8NDu3qePL
o6SUdINCZgDobz1A4Bjh7q+FgRxGJAzLzavofINFAPRh5+1zUZMcDXf2gvZlWMw1
+2iWVmyv24HxU0M47izPN1ga+3snerwJeUWFcbfWakrb2/IHrWbyc6+ON/vQEu31
HUWsq8R9WSoxIyZFHeu0R8Xi8QuEgpLfIpNJ82SLH5XS9it+R+8QJL3CZuMCAwEA
AaOB1DCB0TBRBgNVHSMESjBIgBS86i9m3lQ1gaxQ2xtB2GrM8KlUX6ElpCMwITEf
MB0GA1UEAwwWZXRjZC1zaWduZXJAMTU0MDg5ODUyN4IJAKZDtWVhetE3MAwGA1Ud
EwEB/wQCMAAwEwYDVR0lBAwwCgYIKwYBBQUHAwEwCwYDVR0PBAQDAgWgMB0GA1Ud
DgQWBBSquf8WDQWRe2/50gBvCkIOlNlqXDAtBgNVHREEJjAkhwSsH2C7ghxhbW9z
MDEtbWFzdGVyMDAxLmFtb3NkZW1vLmlvMA0GCSqGSIb3DQEBCwUAA4ICAQBLGaH9
DzJNA3h7P7s3ESNgmg0gDTZ/P8RCxmkK97s2yuer0yRi4fdCGY1WOrvOCbOVE6J0
aaPsi6bRKbgTw2hciiivzYHPSXaKeqS6qnLfU3GveGtIPiCevAWQTkqPbKR2ue6e
GYUpggVoC2N2bp080AyjO1Vo4HawB752T9+H/QsqQhZreRT8rFQdTD7HDerNuNf8
Xn7hnZY/5DxktHsrKz4dwFdiMOyBadEE837CEPZoGQ+GiNiyaQfNuBqLWGWW7+Se
LaAP/NEjpcWkaMPPH5e1IzkvfiUQxAibdv2kr5avlyyBp6cmpt3+n3au/U0COzkA
kEs97VXgwWVVX4BJuIp0flowOoU5eHuvlzN/W+6ep1301d4snmevoLVdnJAeoGRq
FJa2xisKDRvZoSNPBlKvq9w8AOHYF0Or9WsCWiEUSsgt3GX4r8qPxXya3pWg36Gv
WcSVMpTNPAEFvmKRrcGKQfuPygU7YXrdP2faL/YJsu6r7buC5tfDObFqxozWE4FR
YrNUMk+o8okKNNfjjn43QcDZBgn0lvLgHVNyzK/rrlUt+4PZOA2IwBIGXRxcbeD1
P4cYBNIo8Wa0lQorg2d9xYlMzKGk/yrB1vM7VFxXej0YSqLyyDrTRLLCM1UIGBty
XBaPq7DVM2t4KURBs3OctsAhDmh9DnHCYktU3Q==
-----END CERTIFICATE-----
