Certificate:
    Data:
        Version: 3 (0x2)
        Serial Number: 3 (0x3)
    Signature Algorithm: sha256WithRSAEncryption
        Issuer: CN=etcd-signer@1540898527
        Validity
            Not Before: Oct 30 11:24:36 2018 GMT
            Not After : Oct 29 11:24:36 2023 GMT
        Subject: CN=amos01-master001.amosdemo.io
        Subject Public Key Info:
            Public Key Algorithm: rsaEncryption
                Public-Key: (2048 bit)
                Modulus:
                    00:e4:e7:93:59:30:34:1f:fd:5e:2d:40:11:77:9d:
                    71:02:8b:8a:80:e9:72:38:3e:d0:a7:51:da:a8:25:
                    19:a0:e2:6c:f4:fc:e2:60:0c:38:da:c2:ef:f1:57:
                    58:43:0d:db:01:ff:7e:f9:8d:f1:75:b1:d7:3b:e6:
                    e9:93:65:b4:83:58:ee:7f:8b:cc:91:06:f6:25:e2:
                    40:bc:b6:16:88:b8:4d:80:99:2a:cc:37:51:20:cf:
                    ec:ce:74:77:07:76:7a:8e:36:b1:20:9f:bf:19:5d:
                    90:1e:23:a1:38:30:05:fc:c8:a1:26:a2:eb:8f:62:
                    35:cb:15:05:fe:a0:a5:8c:b5:29:ab:f6:b3:1b:0a:
                    c7:cd:b4:0e:5d:82:0a:89:01:7f:c1:72:45:c2:38:
                    1d:4d:cc:63:fc:be:cc:01:ea:dd:10:55:ca:d7:31:
                    4f:38:69:eb:6a:7d:8c:96:d7:05:4e:46:a4:1d:17:
                    5b:57:7a:03:32:ba:c6:f5:a6:c3:46:63:67:c7:fa:
                    a8:0f:d3:de:c6:55:c7:3d:52:e7:a8:28:2d:ce:2c:
                    05:5e:9c:c7:a0:87:40:c4:59:24:61:a4:9d:fa:bd:
                    c2:b9:02:2d:38:c4:51:01:19:90:4c:c0:a2:10:ed:
                    4e:94:72:b2:2a:b5:d8:05:6e:55:80:f2:40:4c:d0:
                    d8:b3
                Exponent: 65537 (0x10001)
        X509v3 extensions:
            X509v3 Authority Key Identifier: 
                keyid:BC:EA:2F:66:DE:54:35:81:AC:50:DB:1B:41:D8:6A:CC:F0:A9:54:5F
                DirName:/CN=etcd-signer@1540898527
                serial:A6:43:B5:65:61:7A:D1:37

            X509v3 Basic Constraints: critical
                CA:FALSE
            X509v3 Extended Key Usage: 
                TLS Web Client Authentication
            X509v3 Key Usage: 
                Digital Signature, Key Encipherment
            X509v3 Subject Key Identifier: 
                FB:A3:1A:FB:DB:69:32:6C:C7:93:85:B9:9E:A6:9E:53:F6:1A:AD:7C
            X509v3 Subject Alternative Name: 
                IP Address:172.31.96.187, DNS:amos01-master001.amosdemo.io
    Signature Algorithm: sha256WithRSAEncryption
         84:e3:f3:2f:d5:9c:9d:56:03:ea:08:e0:de:2d:c9:02:23:87:
         ac:a9:80:5c:85:77:d1:93:ae:31:41:f2:1c:2d:04:99:6f:68:
         b2:a8:48:38:a1:7e:0f:e7:9c:f2:da:b1:37:df:c5:c7:7b:68:
         e8:cb:8e:93:92:69:ae:f0:7a:71:b2:d7:63:51:ee:0f:40:b6:
         0c:f4:f9:56:64:c0:f2:79:a7:b7:7a:4f:3f:e3:a0:c9:d3:0b:
         e7:d8:02:68:40:57:20:10:44:5c:0b:63:a1:e2:65:a9:8a:88:
         9b:db:47:7a:9e:70:c4:cb:aa:70:81:ef:f1:96:5e:68:d7:b2:
         27:37:3b:db:32:d2:af:7e:54:ad:89:9a:6e:1d:2a:b5:fd:4c:
         ba:d8:b5:47:41:ac:5b:04:bf:cc:44:ed:34:12:47:e9:25:99:
         7d:20:80:36:44:c2:03:3d:85:91:4b:0b:16:42:5f:7c:89:3a:
         a2:ac:d6:de:b5:6c:b9:14:86:bf:b3:27:46:ea:b9:66:eb:49:
         c2:7c:75:34:96:78:c3:33:c0:e2:d7:67:b2:ce:db:9e:06:7a:
         d4:d6:5a:1e:7d:39:4f:45:ef:04:17:1b:17:64:34:86:47:9a:
         14:67:c1:80:5b:84:ca:f4:ce:11:10:7f:67:64:75:ce:a0:88:
         13:89:56:6b:12:25:12:ab:9c:4f:69:58:68:5e:0a:5d:68:99:
         46:85:e4:6c:9d:fa:eb:6a:f6:d4:8c:3d:e8:d2:94:5b:e1:df:
         ed:0a:87:cc:4e:e3:f0:4d:ce:df:23:f4:cc:fb:dc:8a:38:3b:
         f8:f6:39:c0:89:0c:6e:d0:b6:c8:df:a9:49:94:b4:8f:49:34:
         32:85:9d:74:06:94:44:5c:5d:05:3e:1b:03:ae:fc:a5:d3:ec:
         0d:7f:dc:02:fe:a3:8a:0f:92:9a:d5:25:a5:0e:6d:93:06:8e:
         10:52:29:d5:93:62:57:f3:cb:1b:4a:7f:f6:bb:6a:76:7e:bf:
         1e:e3:71:91:a8:42:22:c7:02:41:b8:99:99:01:fe:16:e1:9a:
         44:98:6b:36:23:c1:cb:12:79:dd:00:36:35:39:9e:63:8b:30:
         28:0d:bc:06:80:61:9c:82:10:38:18:64:c0:8e:b3:87:ed:ac:
         a5:b4:64:07:91:a7:80:53:7d:bd:01:87:a6:8c:6b:62:b4:6e:
         46:06:14:34:1d:24:0d:5c:b1:2f:ba:bb:2f:d7:59:4d:bc:e8:
         94:55:2b:4c:de:5d:b5:29:90:6a:8e:1b:c8:2d:54:ca:32:ac:
         38:9c:4e:94:48:24:ff:fb:85:dd:74:15:87:dc:47:79:d9:ef:
         e4:ea:75:6a:d2:ce:9a:0a
-----BEGIN CERTIFICATE-----
MIIEmDCCAoCgAwIBAgIBAzANBgkqhkiG9w0BAQsFADAhMR8wHQYDVQQDDBZldGNk
LXNpZ25lckAxNTQwODk4NTI3MB4XDTE4MTAzMDExMjQzNloXDTIzMTAyOTExMjQz
NlowJzElMCMGA1UEAwwcYW1vczAxLW1hc3RlcjAwMS5hbW9zZGVtby5pbzCCASIw
DQYJKoZIhvcNAQEBBQADggEPADCCAQoCggEBAOTnk1kwNB/9Xi1AEXedcQKLioDp
cjg+0KdR2qglGaDibPT84mAMONrC7/FXWEMN2wH/fvmN8XWx1zvm6ZNltINY7n+L
zJEG9iXiQLy2Foi4TYCZKsw3USDP7M50dwd2eo42sSCfvxldkB4joTgwBfzIoSai
649iNcsVBf6gpYy1Kav2sxsKx820Dl2CCokBf8FyRcI4HU3MY/y+zAHq3RBVytcx
Tzhp62p9jJbXBU5GpB0XW1d6AzK6xvWmw0ZjZ8f6qA/T3sZVxz1S56goLc4sBV6c
x6CHQMRZJGGknfq9wrkCLTjEUQEZkEzAohDtTpRysiq12AVuVYDyQEzQ2LMCAwEA
AaOB1DCB0TBRBgNVHSMESjBIgBS86i9m3lQ1gaxQ2xtB2GrM8KlUX6ElpCMwITEf
MB0GA1UEAwwWZXRjZC1zaWduZXJAMTU0MDg5ODUyN4IJAKZDtWVhetE3MAwGA1Ud
EwEB/wQCMAAwEwYDVR0lBAwwCgYIKwYBBQUHAwIwCwYDVR0PBAQDAgWgMB0GA1Ud
DgQWBBT7oxr722kybMeThbmepp5T9hqtfDAtBgNVHREEJjAkhwSsH2C7ghxhbW9z
MDEtbWFzdGVyMDAxLmFtb3NkZW1vLmlvMA0GCSqGSIb3DQEBCwUAA4ICAQCE4/Mv
1ZydVgPqCODeLckCI4esqYBchXfRk64xQfIcLQSZb2iyqEg4oX4P55zy2rE338XH
e2joy46Tkmmu8HpxstdjUe4PQLYM9PlWZMDyeae3ek8/46DJ0wvn2AJoQFcgEERc
C2Oh4mWpioib20d6nnDEy6pwge/xll5o17InNzvbMtKvflStiZpuHSq1/Uy62LVH
QaxbBL/MRO00EkfpJZl9IIA2RMIDPYWRSwsWQl98iTqirNbetWy5FIa/sydG6rlm
60nCfHU0lnjDM8Di12eyztueBnrU1loefTlPRe8EFxsXZDSGR5oUZ8GAW4TK9M4R
EH9nZHXOoIgTiVZrEiUSq5xPaVhoXgpdaJlGheRsnfrravbUjD3o0pRb4d/tCofM
TuPwTc7fI/TM+9yKODv49jnAiQxu0LbI36lJlLSPSTQyhZ10BpREXF0FPhsDrvyl
0+wNf9wC/qOKD5Ka1SWlDm2TBo4QUinVk2JX88sbSn/2u2p2fr8e43GRqEIixwJB
uJmZAf4W4ZpEmGs2I8HLEnndADY1OZ5jizAoDbwGgGGcghA4GGTAjrOH7ayltGQH
kaeAU329AYemjGtitG5GBhQ0HSQNXLEvursv11lNvOiUVStM3l21KZBqjhvILVTK
Mqw4nE6USCT/+4XddBWH3Ed52e/k6nVq0s6aCg==
-----END CERTIFICATE-----
